target datalayout = "e-m:e-p270:32:32-p271:32:32-p272:64:64-i64:64-i128:128-f80:128-n8:16:32:64-S128"
target triple = "x86_64-pc-linux-gnu"

%struct.WebPPicture = type { i32, i32, i32, i32, ptr, ptr, ptr, i32, i32, ptr, i32, [2 x i32], ptr, i32, [3 x i32], ptr, ptr, i32, ptr, ptr, i32, ptr, ptr, [3 x i32], ptr, ptr, [8 x i32], ptr, ptr, [2 x ptr] }

; Function Attrs: nounwind uwtable
define dso_local i32 @WebPImportRGB4444(ptr noundef %0, ptr noundef %1) #0 {
  %3 = alloca i32, align 4
  %4 = alloca ptr, align 8
  %5 = alloca ptr, align 8
  %6 = alloca i32, align 4
  %7 = alloca i32, align 4
  %8 = alloca ptr, align 8
  %9 = alloca i32, align 4
  %10 = alloca i32, align 4
  %11 = alloca i32, align 4
  %12 = alloca i32, align 4
  %13 = alloca i32, align 4
  %14 = alloca i32, align 4
  %15 = alloca i32, align 4
  store ptr %0, ptr %4, align 8
  store ptr %1, ptr %5, align 8
  %16 = load ptr, ptr %5, align 8
  %17 = icmp eq ptr %16, null
  br i1 %17, label %21, label %18

18:                                               ; preds = %2
  %19 = load ptr, ptr %4, align 8
  %20 = icmp eq ptr %19, null
  br i1 %20, label %21, label %22

21:                                               ; preds = %18, %2
  store i32 0, ptr %3, align 4
  br label %123

22:                                               ; preds = %18
  %23 = load ptr, ptr %5, align 8
  %24 = getelementptr inbounds %struct.WebPPicture, ptr %23, i32 0, i32 1
  store i32 0, ptr %24, align 4
  %25 = load ptr, ptr %5, align 8
  %26 = getelementptr inbounds %struct.WebPPicture, ptr %25, i32 0, i32 0
  store i32 1, ptr %26, align 8
  %27 = load ptr, ptr %5, align 8
  %28 = call i32 @WebPPictureAlloc(ptr noundef %27)
  %29 = icmp ne i32 %28, 0
  br i1 %29, label %31, label %30

30:                                               ; preds = %22
  store i32 0, ptr %3, align 4
  br label %123

31:                                               ; preds = %22
  %32 = load ptr, ptr %5, align 8
  %33 = getelementptr inbounds %struct.WebPPicture, ptr %32, i32 0, i32 12
  %34 = load ptr, ptr %33, align 8
  store ptr %34, ptr %8, align 8
  store i32 0, ptr %7, align 4
  br label %35

35:                                               ; preds = %119, %31
  %36 = load i32, ptr %7, align 4
  %37 = load ptr, ptr %5, align 8
  %38 = getelementptr inbounds %struct.WebPPicture, ptr %37, i32 0, i32 3
  %39 = load i32, ptr %38, align 4
  %40 = icmp slt i32 %36, %39
  br i1 %40, label %41, label %122

41:                                               ; preds = %35
  %42 = load ptr, ptr %5, align 8
  %43 = getelementptr inbounds %struct.WebPPicture, ptr %42, i32 0, i32 2
  %44 = load i32, ptr %43, align 8
  store i32 %44, ptr %9, align 4
  store i32 0, ptr %6, align 4
  br label %45

45:                                               ; preds = %104, %41
  %46 = load i32, ptr %6, align 4
  %47 = load i32, ptr %9, align 4
  %48 = icmp slt i32 %46, %47
  br i1 %48, label %49, label %107

49:                                               ; preds = %45
  %50 = load ptr, ptr %4, align 8
  %51 = load i32, ptr %6, align 4
  %52 = mul nsw i32 2, %51
  %53 = add nsw i32 %52, 0
  %54 = sext i32 %53 to i64
  %55 = getelementptr inbounds i8, ptr %50, i64 %54
  %56 = load i8, ptr %55, align 1
  %57 = zext i8 %56 to i32
  store i32 %57, ptr %10, align 4
  %58 = load ptr, ptr %4, align 8
  %59 = load i32, ptr %6, align 4
  %60 = mul nsw i32 2, %59
  %61 = add nsw i32 %60, 1
  %62 = sext i32 %61 to i64
  %63 = getelementptr inbounds i8, ptr %58, i64 %62
  %64 = load i8, ptr %63, align 1
  %65 = zext i8 %64 to i32
  store i32 %65, ptr %11, align 4
  %66 = load i32, ptr %10, align 4
  %67 = and i32 %66, 240
  store i32 %67, ptr %12, align 4
  %68 = load i32, ptr %10, align 4
  %69 = shl i32 %68, 4
  store i32 %69, ptr %13, align 4
  %70 = load i32, ptr %11, align 4
  %71 = and i32 %70, 240
  store i32 %71, ptr %14, align 4
  %72 = load i32, ptr %11, align 4
  %73 = shl i32 %72, 4
  store i32 %73, ptr %15, align 4
  %74 = load i32, ptr %12, align 4
  %75 = load i32, ptr %12, align 4
  %76 = lshr i32 %75, 4
  %77 = or i32 %74, %76
  store i32 %77, ptr %12, align 4
  %78 = load i32, ptr %13, align 4
  %79 = load i32, ptr %13, align 4
  %80 = lshr i32 %79, 4
  %81 = or i32 %78, %80
  store i32 %81, ptr %13, align 4
  %82 = load i32, ptr %14, align 4
  %83 = load i32, ptr %14, align 4
  %84 = lshr i32 %83, 4
  %85 = or i32 %82, %84
  store i32 %85, ptr %14, align 4
  %86 = load i32, ptr %15, align 4
  %87 = load i32, ptr %15, align 4
  %88 = lshr i32 %87, 4
  %89 = or i32 %86, %88
  store i32 %89, ptr %15, align 4
  %90 = load i32, ptr %15, align 4
  %91 = shl i32 %90, 24
  %92 = load i32, ptr %12, align 4
  %93 = shl i32 %92, 16
  %94 = or i32 %91, %93
  %95 = load i32, ptr %13, align 4
  %96 = shl i32 %95, 8
  %97 = or i32 %94, %96
  %98 = load i32, ptr %14, align 4
  %99 = or i32 %97, %98
  %100 = load ptr, ptr %8, align 8
  %101 = load i32, ptr %6, align 4
  %102 = sext i32 %101 to i64
  %103 = getelementptr inbounds i32, ptr %100, i64 %102
  store i32 %99, ptr %103, align 4
  br label %104

104:                                              ; preds = %49
  %105 = load i32, ptr %6, align 4
  %106 = add nsw i32 %105, 1
  store i32 %106, ptr %6, align 4
  br label %45, !llvm.loop !9

107:                                              ; preds = %45
  %108 = load i32, ptr %9, align 4
  %109 = mul nsw i32 2, %108
  %110 = load ptr, ptr %4, align 8
  %111 = sext i32 %109 to i64
  %112 = getelementptr inbounds i8, ptr %110, i64 %111
  store ptr %112, ptr %4, align 8
  %113 = load ptr, ptr %5, align 8
  %114 = getelementptr inbounds %struct.WebPPicture, ptr %113, i32 0, i32 13
  %115 = load i32, ptr %114, align 8
  %116 = load ptr, ptr %8, align 8
  %117 = sext i32 %115 to i64
  %118 = getelementptr inbounds i32, ptr %116, i64 %117
  store ptr %118, ptr %8, align 8
  br label %119

119:                                              ; preds = %107
  %120 = load i32, ptr %7, align 4
  %121 = add nsw i32 %120, 1
  store i32 %121, ptr %7, align 4
  br label %35, !llvm.loop !10

122:                                              ; preds = %35
  store i32 1, ptr %3, align 4
  br label %123

123:                                              ; preds = %122, %30, %21
  %124 = load i32, ptr %3, align 4
  ret i32 %124
}