; Function Attrs: nounwind uwtable
define dso_local range(i32 0, 2) i32 @WebPImportRGB4444(ptr noundef readonly %0, ptr noundef %1) local_unnamed_addr #1 {
  %3 = icmp eq ptr %1, null
  %4 = icmp eq ptr %0, null
  %or.cond = or i1 %4, %3
  br i1 %or.cond, label %.loopexit, label %5

5:                                                ; preds = %2
  %6 = getelementptr inbounds nuw i8, ptr %1, i64 4
  store i32 0, ptr %6, align 4
  store i32 1, ptr %1, align 8
  %7 = tail call i32 @WebPPictureAlloc(ptr noundef nonnull %1) #6
  %.not = icmp eq i32 %7, 0
  br i1 %.not, label %.loopexit, label %8

8:                                                ; preds = %5
  %9 = getelementptr inbounds nuw i8, ptr %1, i64 12
  %10 = load i32, ptr %9, align 4
  %11 = icmp sgt i32 %10, 0
  br i1 %11, label %.lr.ph52, label %.loopexit

.lr.ph52:                                         ; preds = %8
  %12 = getelementptr inbounds nuw i8, ptr %1, i64 8
  %13 = getelementptr inbounds nuw i8, ptr %1, i64 80
  %14 = load i32, ptr %12, align 8
  %15 = icmp sgt i32 %14, 0
  br i1 %15, label %.lr.ph52.split.preheader, label %.loopexit

.lr.ph52.split.preheader:                         ; preds = %.lr.ph52
  %16 = getelementptr inbounds nuw i8, ptr %1, i64 72
  %17 = load ptr, ptr %16, align 8
  br label %.lr.ph52.split

.lr.ph52.splitthread-pre-split:                   ; preds = %._crit_edge
  %18 = load i32, ptr %13, align 8
  %19 = sext i32 %18 to i64
  %20 = getelementptr inbounds i32, ptr %.04348, i64 %19
  %21 = shl nsw i32 %24, 1
  %22 = sext i32 %21 to i64
  %23 = getelementptr inbounds i8, ptr %.04050, i64 %22
  %.pr = load i32, ptr %12, align 8
  br label %.lr.ph52.split

.lr.ph52.split:                                   ; preds = %.lr.ph52.splitthread-pre-split, %.lr.ph52.split.preheader
  %24 = phi i32 [ %.pr, %.lr.ph52.splitthread-pre-split ], [ %14, %.lr.ph52.split.preheader ]
  %25 = phi i32 [ %52, %.lr.ph52.splitthread-pre-split ], [ %10, %.lr.ph52.split.preheader ]
  %.04050 = phi ptr [ %23, %.lr.ph52.splitthread-pre-split ], [ %0, %.lr.ph52.split.preheader ]
  %.04249 = phi i32 [ %53, %.lr.ph52.splitthread-pre-split ], [ 0, %.lr.ph52.split.preheader ]
  %.04348 = phi ptr [ %20, %.lr.ph52.splitthread-pre-split ], [ %17, %.lr.ph52.split.preheader ]
  %26 = icmp sgt i32 %24, 0
  br i1 %26, label %.lr.ph.preheader, label %._crit_edge

.lr.ph.preheader:                                 ; preds = %.lr.ph52.split
  %wide.trip.count = zext nneg i32 %24 to i64
  br label %.lr.ph

.lr.ph:                                           ; preds = %.lr.ph.preheader, %.lr.ph
  %indvars.iv = phi i64 [ 0, %.lr.ph.preheader ], [ %indvars.iv.next, %.lr.ph ]
  %27 = shl nuw nsw i64 %indvars.iv, 1
  %28 = getelementptr inbounds nuw i8, ptr %.04050, i64 %27
  %29 = load i8, ptr %28, align 1
  %30 = zext i8 %29 to i32
  %31 = or disjoint i64 %27, 1
  %32 = getelementptr inbounds nuw i8, ptr %.04050, i64 %31
  %33 = load i8, ptr %32, align 1
  %34 = zext i8 %33 to i32
  %35 = and i32 %30, 240
  %36 = and i32 %34, 240
  %37 = lshr i32 %30, 4
  %38 = or disjoint i32 %35, %37
  %39 = lshr i32 %34, 4
  %40 = shl i32 %34, 28
  %41 = shl nuw i32 %34, 24
  %42 = or i32 %40, %41
  %43 = shl nuw nsw i32 %38, 16
  %44 = or disjoint i32 %42, %43
  %45 = shl nuw nsw i32 %30, 12
  %46 = shl nuw nsw i32 %30, 8
  %47 = or i32 %45, %46
  %48 = or disjoint i32 %47, %39
  %49 = or disjoint i32 %48, %36
  %50 = or i32 %49, %44
  %51 = getelementptr inbounds nuw i32, ptr %.04348, i64 %indvars.iv
  store i32 %50, ptr %51, align 4
  %indvars.iv.next = add nuw nsw i64 %indvars.iv, 1
  %exitcond.not = icmp eq i64 %indvars.iv.next, %wide.trip.count
  br i1 %exitcond.not, label %._crit_edge.loopexit, label %.lr.ph, !llvm.loop !10

._crit_edge.loopexit:                             ; preds = %.lr.ph
  %.pre = load i32, ptr %9, align 4
  br label %._crit_edge

._crit_edge:                                      ; preds = %._crit_edge.loopexit, %.lr.ph52.split
  %52 = phi i32 [ %.pre, %._crit_edge.loopexit ], [ %25, %.lr.ph52.split ]
  %53 = add nuw nsw i32 %.04249, 1
  %54 = icmp slt i32 %53, %52
  br i1 %54, label %.lr.ph52.splitthread-pre-split, label %.loopexit, !llvm.loop !11

.loopexit:                                        ; preds = %._crit_edge, %.lr.ph52, %8, %5, %2
  %.0 = phi i32 [ 0, %2 ], [ 0, %5 ], [ 1, %8 ], [ 1, %.lr.ph52 ], [ 1, %._crit_edge ]
  ret i32 %.0
}